target datalayout = "e-m:e-p270:32:32-p271:32:32-p272:64:64-i64:64-i128:128-f80:128-n8:16:32:64-S128"
target triple = "x86_64-pc-linux-gnu"

%struct.PyVarObject = type { %struct._object, i64 }
%struct._object = type { %union.anon, ptr }
%union.anon = type { i64 }
%struct.PyBytesObject = type { %struct.PyVarObject, i64, [1 x i8] }
%struct._Py_ext_module_loader_info = type { ptr, ptr, ptr, ptr, ptr, i32, ptr, ptr }
%struct.anon = type { i32, i32 }

@.str.13 = private unnamed_addr constant [62 x i8] c"dynamic module does not define module export function (%s_%s)\00", align 1

; Function Attrs: alwaysinline nounwind uwtable
define internal i32 @_Py_IsImmortal(ptr noundef %0) #2 {
  %2 = alloca ptr, align 8
  store ptr %0, ptr %2, align 8, !tbaa !11
  %3 = load ptr, ptr %2, align 8, !tbaa !11
  %4 = getelementptr inbounds nuw %struct._object, ptr %3, i32 0, i32 0
  %5 = getelementptr inbounds nuw %struct.anon, ptr %4, i32 0, i32 0
  %6 = load i32, ptr %5, align 8, !tbaa !13
  %7 = icmp slt i32 %6, 0
  %8 = zext i1 %7 to i32
  ret i32 %8
}

; Function Attrs: alwaysinline nounwind uwtable
define internal void @Py_DECREF(ptr noundef %0) #2 {
  %2 = alloca ptr, align 8
  store ptr %0, ptr %2, align 8, !tbaa !11
  %3 = load ptr, ptr %2, align 8, !tbaa !11
  %4 = call i32 @_Py_IsImmortal(ptr noundef %3)
  %5 = icmp ne i32 %4, 0
  br i1 %5, label %6, label %7

6:                                                ; preds = %1
  br label %16

7:                                                ; preds = %1
  %8 = load ptr, ptr %2, align 8, !tbaa !11
  %9 = getelementptr inbounds nuw %struct._object, ptr %8, i32 0, i32 0
  %10 = getelementptr inbounds nuw %struct.anon, ptr %9, i32 0, i32 0
  %11 = load i32, ptr %10, align 8, !tbaa !13
  %12 = add i32 %11, -1
  store i32 %12, ptr %10, align 8, !tbaa !13
  %13 = icmp eq i32 %12, 0
  br i1 %13, label %14, label %16

14:                                               ; preds = %7
  %15 = load ptr, ptr %2, align 8, !tbaa !11
  call void @_Py_Dealloc(ptr noundef %15)
  br label %16

16:                                               ; preds = %6, %14, %7
  ret void
}

; Function Attrs: inlinehint nounwind uwtable
define internal ptr @PyBytes_AS_STRING(ptr noundef %0) #4 {
  %2 = alloca ptr, align 8
  store ptr %0, ptr %2, align 8, !tbaa !11
  %3 = load ptr, ptr %2, align 8, !tbaa !11
  %4 = getelementptr inbounds nuw %struct.PyBytesObject, ptr %3, i32 0, i32 2
  %5 = getelementptr inbounds [1 x i8], ptr %4, i64 0, i64 0
  ret ptr %5
}

; Function Attrs: nounwind uwtable
define hidden ptr @_PyImport_GetModInitFunc(ptr noundef %0, ptr noundef %1) #0 {
  %3 = alloca ptr, align 8
  %4 = alloca ptr, align 8
  %5 = alloca ptr, align 8
  %6 = alloca ptr, align 8
  %7 = alloca ptr, align 8
  %8 = alloca ptr, align 8
  %9 = alloca ptr, align 8
  %10 = alloca i32, align 4
  store ptr %0, ptr %4, align 8, !tbaa !4
  store ptr %1, ptr %5, align 8, !tbaa !56
  call void @llvm.lifetime.start.p0(i64 8, ptr %6) #7
  %11 = load ptr, ptr %4, align 8, !tbaa !4
  %12 = getelementptr inbounds nuw %struct._Py_ext_module_loader_info, ptr %11, i32 0, i32 3
  %13 = load ptr, ptr %12, align 8, !tbaa !20
  %14 = call ptr @PyBytes_AS_STRING(ptr noundef %13)
  store ptr %14, ptr %6, align 8, !tbaa !26
  call void @llvm.lifetime.start.p0(i64 8, ptr %7) #7
  call void @llvm.lifetime.start.p0(i64 8, ptr %8) #7
  %15 = load ptr, ptr %4, align 8, !tbaa !4
  %16 = getelementptr inbounds nuw %struct._Py_ext_module_loader_info, ptr %15, i32 0, i32 1
  %17 = load ptr, ptr %16, align 8, !tbaa !23
  %18 = call ptr @PyBytes_AS_STRING(ptr noundef %17)
  store ptr %18, ptr %8, align 8, !tbaa !26
  %19 = load ptr, ptr %4, align 8, !tbaa !4
  %20 = getelementptr inbounds nuw %struct._Py_ext_module_loader_info, ptr %19, i32 0, i32 6
  %21 = load ptr, ptr %20, align 8, !tbaa !42
  %22 = load ptr, ptr %6, align 8, !tbaa !26
  %23 = load ptr, ptr %8, align 8, !tbaa !26
  %24 = load ptr, ptr %5, align 8, !tbaa !56
  %25 = call ptr @_PyImport_FindSharedFuncptr(ptr noundef %21, ptr noundef %22, ptr noundef %23, ptr noundef %24)
  store ptr %25, ptr %7, align 8, !tbaa !58
  call void @llvm.lifetime.end.p0(i64 8, ptr %8) #7
  %26 = load ptr, ptr %7, align 8, !tbaa !58
  %27 = icmp eq ptr %26, null
  br i1 %27, label %28, label %51

28:                                               ; preds = %2
  %29 = call ptr @PyErr_Occurred()
  %30 = icmp ne ptr %29, null
  br i1 %30, label %50, label %31

31:                                               ; preds = %28
  call void @llvm.lifetime.start.p0(i64 8, ptr %9) #7
  %32 = load ptr, ptr %4, align 8, !tbaa !4
  %33 = getelementptr inbounds nuw %struct._Py_ext_module_loader_info, ptr %32, i32 0, i32 6
  %34 = load ptr, ptr %33, align 8, !tbaa !42
  %35 = load ptr, ptr %6, align 8, !tbaa !26
  %36 = call ptr (ptr, ...) @PyUnicode_FromFormat(ptr noundef @.str.13, ptr noundef %34, ptr noundef %35)
  store ptr %36, ptr %9, align 8, !tbaa !11
  %37 = load ptr, ptr %9, align 8, !tbaa !11
  %38 = icmp ne ptr %37, null
  br i1 %38, label %39, label %49

39:                                               ; preds = %31
  %40 = load ptr, ptr %9, align 8, !tbaa !11
  %41 = load ptr, ptr %4, align 8, !tbaa !4
  %42 = getelementptr inbounds nuw %struct._Py_ext_module_loader_info, ptr %41, i32 0, i32 2
  %43 = load ptr, ptr %42, align 8, !tbaa !19
  %44 = load ptr, ptr %4, align 8, !tbaa !4
  %45 = getelementptr inbounds nuw %struct._Py_ext_module_loader_info, ptr %44, i32 0, i32 0
  %46 = load ptr, ptr %45, align 8, !tbaa !22
  %47 = call ptr @PyErr_SetImportError(ptr noundef %40, ptr noundef %43, ptr noundef %46)
  %48 = load ptr, ptr %9, align 8, !tbaa !11
  call void @Py_DECREF(ptr noundef %48)
  br label %49

49:                                               ; preds = %39, %31
  call void @llvm.lifetime.end.p0(i64 8, ptr %9) #7
  br label %50

50:                                               ; preds = %49, %28
  store ptr null, ptr %3, align 8
  store i32 1, ptr %10, align 4
  br label %53

51:                                               ; preds = %2
  %52 = load ptr, ptr %7, align 8, !tbaa !58
  store ptr %52, ptr %3, align 8
  store i32 1, ptr %10, align 4
  br label %53

53:                                               ; preds = %51, %50
  call void @llvm.lifetime.end.p0(i64 8, ptr %7) #7
  call void @llvm.lifetime.end.p0(i64 8, ptr %6) #7
  %54 = load ptr, ptr %3, align 8
  ret ptr %54
}