; Function Attrs: nounwind uwtable
define hidden ptr @_PyImport_GetModInitFunc(ptr noundef readonly captures(none) %0, ptr noundef %1) local_unnamed_addr #0 {
  %3 = getelementptr inbounds nuw i8, ptr %0, i64 24
  %4 = load ptr, ptr %3, align 8, !tbaa !27
  %5 = getelementptr inbounds nuw i8, ptr %4, i64 32
  %6 = getelementptr inbounds nuw i8, ptr %0, i64 8
  %7 = load ptr, ptr %6, align 8, !tbaa !30
  %8 = getelementptr inbounds nuw i8, ptr %7, i64 32
  %9 = getelementptr inbounds nuw i8, ptr %0, i64 48
  %10 = load ptr, ptr %9, align 8, !tbaa !39
  %11 = tail call ptr @_PyImport_FindSharedFuncptr(ptr noundef %10, ptr noundef nonnull %5, ptr noundef nonnull %8, ptr noundef %1) #6
  %12 = icmp eq ptr %11, null
  br i1 %12, label %13, label %Py_DECREF.exit

13:                                               ; preds = %2
  %14 = tail call ptr @PyErr_Occurred() #6
  %.not = icmp eq ptr %14, null
  br i1 %.not, label %15, label %Py_DECREF.exit

15:                                               ; preds = %13
  %16 = load ptr, ptr %9, align 8, !tbaa !39
  %17 = tail call ptr (ptr, ...) @PyUnicode_FromFormat(ptr noundef nonnull @.str.13, ptr noundef %16, ptr noundef nonnull %5) #6
  %.not18 = icmp eq ptr %17, null
  br i1 %.not18, label %Py_DECREF.exit, label %18

18:                                               ; preds = %15
  %19 = getelementptr inbounds nuw i8, ptr %0, i64 16
  %20 = load ptr, ptr %19, align 8, !tbaa !25
  %21 = load ptr, ptr %0, align 8, !tbaa !29
  %22 = tail call ptr @PyErr_SetImportError(ptr noundef nonnull %17, ptr noundef %20, ptr noundef %21) #6
  %23 = load i32, ptr %17, align 8, !tbaa !9
  %.not.i = icmp sgt i32 %23, -1
  br i1 %.not.i, label %24, label %Py_DECREF.exit

24:                                               ; preds = %18
  %25 = add nsw i32 %23, -1
  store i32 %25, ptr %17, align 8, !tbaa !9
  %26 = icmp eq i32 %25, 0
  br i1 %26, label %27, label %Py_DECREF.exit

27:                                               ; preds = %24
  tail call void @_Py_Dealloc(ptr noundef nonnull %17) #6
  br label %Py_DECREF.exit

Py_DECREF.exit:                                   ; preds = %27, %24, %18, %2, %13, %15
  ret ptr %11
}